; Function Attrs: nounwind uwtable
define noundef i32 @If_ManPerformMapping(ptr noundef %0) local_unnamed_addr #2 {
  %2 = getelementptr inbounds nuw i8, ptr %0, i64 8
  %3 = load ptr, ptr %2, align 8, !tbaa !25
  %4 = getelementptr inbounds nuw i8, ptr %3, i64 56
  %5 = load i32, ptr %4, align 8, !tbaa !40
  %6 = getelementptr inbounds nuw i8, ptr %3, i64 220
  store i32 %5, ptr %6, align 4, !tbaa !41
  tail call void @If_ManSetupCiCutSets(ptr noundef %0) #11
  %7 = tail call i32 @If_ManCrossCut(ptr noundef %0) #11
  tail call void @If_ManSetupSetAll(ptr noundef %0, i32 noundef %7) #11
  %8 = tail call ptr @If_ManReverseOrder(ptr noundef %0) #11
  %9 = getelementptr inbounds nuw i8, ptr %0, i64 48
  store ptr %8, ptr %9, align 8, !tbaa !42
  %10 = tail call i32 @If_ManPerformMappingComb(ptr noundef %0)
  ret i32 1
}